; Function Attrs: mustprogress nofree norecurse nosync nounwind null_pointer_is_valid sspstrong willreturn memory(argmem: readwrite) uwtable
define hidden range(i32 0, 3) i32 @prefs_set_preference_obsolete(ptr noundef captures(address_is_null) %0) local_unnamed_addr #9 {
  %.not = icmp eq ptr %0, null
  br i1 %.not, label %6, label %2

2:                                                ; preds = %1
  %3 = getelementptr inbounds nuw i8, ptr %0, i64 28
  %4 = load i32, ptr %3, align 4
  %5 = or i32 %4, 1024
  store i32 %5, ptr %3, align 4
  br label %6

6:                                                ; preds = %1, %2
  %.0 = phi i32 [ 0, %2 ], [ 2, %1 ]
  ret i32 %.0
}